; Function Attrs: nounwind uwtable
define ptr @l_Lake_getIsQuiet___rarg(ptr noundef %0, ptr noundef %1) #0 {
  %3 = getelementptr inbounds nuw i8, ptr %0, i64 8
  %4 = load ptr, ptr %3, align 8, !tbaa !11
  %5 = ptrtoint ptr %4 to i64
  %6 = and i64 %5, 1
  %.not = icmp eq i64 %6, 0
  br i1 %.not, label %7, label %lean_inc.exit16

7:                                                ; preds = %2
  %.val.i = load i32, ptr %4, align 4, !tbaa !7
  %8 = icmp sgt i32 %.val.i, 0
  br i1 %8, label %9, label %11, !prof !10

9:                                                ; preds = %7
  %10 = add nuw i32 %.val.i, 1
  store i32 %10, ptr %4, align 4, !tbaa !7
  br label %lean_inc.exit16

11:                                               ; preds = %7
  %.not.i17 = icmp eq i32 %.val.i, 0
  br i1 %.not.i17, label %lean_inc.exit16, label %12

12:                                               ; preds = %11
  tail call void @lean_inc_ref_cold(ptr noundef nonnull %4) #4
  br label %lean_inc.exit16

lean_inc.exit16:                                  ; preds = %12, %11, %9, %2
  %13 = ptrtoint ptr %0 to i64
  %14 = and i64 %13, 1
  %.not24 = icmp eq i64 %14, 0
  br i1 %.not24, label %15, label %lean_dec.exit

15:                                               ; preds = %lean_inc.exit16
  %16 = load i32, ptr %0, align 4, !tbaa !7
  %17 = icmp sgt i32 %16, 1
  br i1 %17, label %18, label %20, !prof !10

18:                                               ; preds = %15
  %19 = add nsw i32 %16, -1
  store i32 %19, ptr %0, align 4, !tbaa !7
  br label %lean_dec.exit

20:                                               ; preds = %15
  %.not.i = icmp eq i32 %16, 0
  br i1 %.not.i, label %lean_dec.exit, label %21

21:                                               ; preds = %20
  tail call void @lean_dec_ref_cold(ptr noundef nonnull %0) #4
  br label %lean_dec.exit

lean_dec.exit:                                    ; preds = %21, %20, %18, %lean_inc.exit16
  %22 = load ptr, ptr @l_Lake_getBuildConfig___rarg___closed__1, align 8, !tbaa !11
  br i1 %.not, label %23, label %lean_inc.exit15

23:                                               ; preds = %lean_dec.exit
  %.val.i18 = load i32, ptr %4, align 4, !tbaa !7
  %24 = icmp sgt i32 %.val.i18, 0
  br i1 %24, label %25, label %27, !prof !10

25:                                               ; preds = %23
  %26 = add nuw i32 %.val.i18, 1
  store i32 %26, ptr %4, align 4, !tbaa !7
  br label %31

27:                                               ; preds = %23
  %.not.i19 = icmp eq i32 %.val.i18, 0
  br i1 %.not.i19, label %31, label %28

28:                                               ; preds = %27
  tail call void @lean_inc_ref_cold(ptr noundef nonnull %4) #4
  br label %31

lean_inc.exit15:                                  ; preds = %lean_dec.exit
  %29 = tail call ptr @lean_apply_4(ptr noundef %4, ptr noundef nonnull inttoptr (i64 1 to ptr), ptr noundef nonnull inttoptr (i64 1 to ptr), ptr noundef %22, ptr noundef %1) #4
  %30 = load ptr, ptr @l_Lake_getVerbosity___rarg___closed__1, align 8, !tbaa !11
  br label %lean_inc.exit

31:                                               ; preds = %28, %27, %25
  %32 = tail call ptr @lean_apply_4(ptr noundef nonnull %4, ptr noundef nonnull inttoptr (i64 1 to ptr), ptr noundef nonnull inttoptr (i64 1 to ptr), ptr noundef %22, ptr noundef %1) #4
  %33 = load ptr, ptr @l_Lake_getVerbosity___rarg___closed__1, align 8, !tbaa !11
  %.val.i21 = load i32, ptr %4, align 4, !tbaa !7
  %34 = icmp sgt i32 %.val.i21, 0
  br i1 %34, label %35, label %37, !prof !10

35:                                               ; preds = %31
  %36 = add nuw i32 %.val.i21, 1
  store i32 %36, ptr %4, align 4, !tbaa !7
  br label %lean_inc.exit

37:                                               ; preds = %31
  %.not.i22 = icmp eq i32 %.val.i21, 0
  br i1 %.not.i22, label %lean_inc.exit, label %38

38:                                               ; preds = %37
  tail call void @lean_inc_ref_cold(ptr noundef nonnull %4) #4
  br label %lean_inc.exit

lean_inc.exit:                                    ; preds = %38, %37, %35, %lean_inc.exit15
  %39 = phi ptr [ %30, %lean_inc.exit15 ], [ %33, %35 ], [ %33, %37 ], [ %33, %38 ]
  %40 = phi ptr [ %29, %lean_inc.exit15 ], [ %32, %35 ], [ %32, %37 ], [ %32, %38 ]
  %41 = tail call ptr @lean_apply_4(ptr noundef %4, ptr noundef nonnull inttoptr (i64 1 to ptr), ptr noundef nonnull inttoptr (i64 1 to ptr), ptr noundef %39, ptr noundef %40) #4
  %42 = load ptr, ptr @l_Lake_getIsQuiet___rarg___closed__1, align 8, !tbaa !11
  %43 = tail call ptr @lean_apply_4(ptr noundef %4, ptr noundef nonnull inttoptr (i64 1 to ptr), ptr noundef nonnull inttoptr (i64 1 to ptr), ptr noundef %42, ptr noundef %41) #4
  ret ptr %43
}